target datalayout = "e-m:e-p270:32:32-p271:32:32-p272:64:64-i64:64-i128:128-f80:128-n8:16:32:64-S128"
target triple = "x86_64-pc-linux-gnu"

%"class.icu_77::UCharCharacterIterator" = type { %"class.icu_77::CharacterIterator", ptr }
%"class.icu_77::CharacterIterator" = type { %"class.icu_77::ForwardCharacterIterator", i32, i32, i32, i32 }
%"class.icu_77::ForwardCharacterIterator" = type { %"class.icu_77::UObject" }
%"class.icu_77::UObject" = type { ptr }

; Function Attrs: mustprogress nounwind uwtable
define noundef i32 @_ZN6icu_7722UCharCharacterIterator7first32Ev(ptr noundef nonnull align 8 dereferenceable(32) %0) unnamed_addr #0 align 2 {
  %2 = alloca i32, align 4
  %3 = alloca ptr, align 8
  %4 = alloca i32, align 4
  %5 = alloca i32, align 4
  %6 = alloca i16, align 2
  store ptr %0, ptr %3, align 8, !tbaa !3
  %7 = load ptr, ptr %3, align 8
  %8 = getelementptr inbounds nuw %"class.icu_77::CharacterIterator", ptr %7, i32 0, i32 3
  %9 = load i32, ptr %8, align 8, !tbaa !24
  %10 = getelementptr inbounds nuw %"class.icu_77::CharacterIterator", ptr %7, i32 0, i32 2
  store i32 %9, ptr %10, align 4, !tbaa !23
  %11 = getelementptr inbounds nuw %"class.icu_77::CharacterIterator", ptr %7, i32 0, i32 2
  %12 = load i32, ptr %11, align 4, !tbaa !23
  %13 = getelementptr inbounds nuw %"class.icu_77::CharacterIterator", ptr %7, i32 0, i32 4
  %14 = load i32, ptr %13, align 4, !tbaa !25
  %15 = icmp slt i32 %12, %14
  br i1 %15, label %16, label %60

16:                                               ; preds = %1
  call void @llvm.lifetime.start.p0(i64 4, ptr %4) #7
  %17 = getelementptr inbounds nuw %"class.icu_77::CharacterIterator", ptr %7, i32 0, i32 2
  %18 = load i32, ptr %17, align 4, !tbaa !23
  store i32 %18, ptr %4, align 4, !tbaa !19
  call void @llvm.lifetime.start.p0(i64 4, ptr %5) #7
  br label %19

19:                                               ; preds = %16
  %20 = getelementptr inbounds nuw %"class.icu_77::UCharCharacterIterator", ptr %7, i32 0, i32 1
  %21 = load ptr, ptr %20, align 8, !tbaa !10
  %22 = load i32, ptr %4, align 4, !tbaa !19
  %23 = add nsw i32 %22, 1
  store i32 %23, ptr %4, align 4, !tbaa !19
  %24 = sext i32 %22 to i64
  %25 = getelementptr inbounds i16, ptr %21, i64 %24
  %26 = load i16, ptr %25, align 2, !tbaa !28
  %27 = zext i16 %26 to i32
  store i32 %27, ptr %5, align 4, !tbaa !19
  %28 = load i32, ptr %5, align 4, !tbaa !19
  %29 = and i32 %28, -1024
  %30 = icmp eq i32 %29, 55296
  br i1 %30, label %31, label %56

31:                                               ; preds = %19
  call void @llvm.lifetime.start.p0(i64 2, ptr %6) #7
  %32 = load i32, ptr %4, align 4, !tbaa !19
  %33 = getelementptr inbounds nuw %"class.icu_77::CharacterIterator", ptr %7, i32 0, i32 4
  %34 = load i32, ptr %33, align 4, !tbaa !25
  %35 = icmp ne i32 %32, %34
  br i1 %35, label %36, label %55

36:                                               ; preds = %31
  %37 = getelementptr inbounds nuw %"class.icu_77::UCharCharacterIterator", ptr %7, i32 0, i32 1
  %38 = load ptr, ptr %37, align 8, !tbaa !10
  %39 = load i32, ptr %4, align 4, !tbaa !19
  %40 = sext i32 %39 to i64
  %41 = getelementptr inbounds i16, ptr %38, i64 %40
  %42 = load i16, ptr %41, align 2, !tbaa !28
  store i16 %42, ptr %6, align 2, !tbaa !30
  %43 = zext i16 %42 to i32
  %44 = and i32 %43, -1024
  %45 = icmp eq i32 %44, 56320
  br i1 %45, label %46, label %55

46:                                               ; preds = %36
  %47 = load i32, ptr %4, align 4, !tbaa !19
  %48 = add nsw i32 %47, 1
  store i32 %48, ptr %4, align 4, !tbaa !19
  %49 = load i32, ptr %5, align 4, !tbaa !19
  %50 = shl i32 %49, 10
  %51 = load i16, ptr %6, align 2, !tbaa !30
  %52 = zext i16 %51 to i32
  %53 = add nsw i32 %50, %52
  %54 = sub nsw i32 %53, 56613888
  store i32 %54, ptr %5, align 4, !tbaa !19
  br label %55

55:                                               ; preds = %46, %36, %31
  call void @llvm.lifetime.end.p0(i64 2, ptr %6) #7
  br label %56

56:                                               ; preds = %55, %19
  br label %57

57:                                               ; preds = %56
  br label %58

58:                                               ; preds = %57
  %59 = load i32, ptr %5, align 4, !tbaa !19
  store i32 %59, ptr %2, align 4
  call void @llvm.lifetime.end.p0(i64 4, ptr %5) #7
  call void @llvm.lifetime.end.p0(i64 4, ptr %4) #7
  br label %61

60:                                               ; preds = %1
  store i32 65535, ptr %2, align 4
  br label %61

61:                                               ; preds = %60, %58
  %62 = load i32, ptr %2, align 4
  ret i32 %62
}