; Function Attrs: mustprogress nofree norecurse nosync nounwind willreturn memory(read, argmem: readwrite, inaccessiblemem: none) uwtable
define noundef range(i32 0, 10559488) i32 @_ZN6icu_7722UCharCharacterIterator7first32Ev(ptr noundef nonnull align 8 captures(none) dereferenceable(32) initializes((12, 16)) %0) unnamed_addr #7 align 2 {
  %2 = getelementptr inbounds nuw i8, ptr %0, i64 16
  %3 = load i32, ptr %2, align 8, !tbaa !23
  %4 = getelementptr inbounds nuw i8, ptr %0, i64 12
  store i32 %3, ptr %4, align 4, !tbaa !22
  %5 = getelementptr inbounds nuw i8, ptr %0, i64 20
  %6 = load i32, ptr %5, align 4, !tbaa !24
  %7 = icmp slt i32 %3, %6
  br i1 %7, label %8, label %29

8:                                                ; preds = %1
  %9 = getelementptr inbounds nuw i8, ptr %0, i64 24
  %10 = load ptr, ptr %9, align 8, !tbaa !6
  %11 = add nsw i32 %3, 1
  %12 = sext i32 %3 to i64
  %13 = getelementptr inbounds i16, ptr %10, i64 %12
  %14 = load i16, ptr %13, align 2, !tbaa !25
  %15 = zext i16 %14 to i32
  %16 = and i32 %15, 64512
  %17 = icmp ne i32 %16, 55296
  %.not = icmp eq i32 %11, %6
  %or.cond = select i1 %17, i1 true, i1 %.not
  br i1 %or.cond, label %29, label %18

18:                                               ; preds = %8
  %19 = sext i32 %11 to i64
  %20 = getelementptr inbounds i16, ptr %10, i64 %19
  %21 = load i16, ptr %20, align 2, !tbaa !25
  %22 = zext i16 %21 to i32
  %23 = and i32 %22, 64512
  %24 = icmp eq i32 %23, 56320
  br i1 %24, label %25, label %29

25:                                               ; preds = %18
  %26 = shl nuw nsw i32 %15, 10
  %27 = add nsw i32 %26, -56613888
  %28 = add nuw nsw i32 %27, %22
  br label %29

29:                                               ; preds = %1, %8, %25, %18
  %.0 = phi i32 [ %15, %8 ], [ %28, %25 ], [ %15, %18 ], [ 65535, %1 ]
  ret i32 %.0
}